; Function Attrs: mustprogress uwtable
define hidden void @_ZN4lean10mk_bin_lopERKNS_4exprES2_jPS1_(ptr dead_on_unwind noalias writable sret(%"class.lean::expr") align 8 initializes((0, 8)) %0, ptr noundef nonnull align 8 dereferenceable(8) %1, ptr noundef nonnull readonly align 8 captures(none) dereferenceable(8) %2, i32 noundef %3, ptr noundef %4) local_unnamed_addr #0 personality ptr @__gxx_personality_v0 {
  %6 = alloca %"class.lean::expr", align 8
  %7 = icmp eq i32 %3, 0
  br i1 %7, label %8, label %18

8:                                                ; preds = %5
  %9 = load ptr, ptr %2, align 8, !tbaa !3
  store ptr %9, ptr %0, align 8, !tbaa !3
  %10 = ptrtoint ptr %9 to i64
  %11 = and i64 %10, 1
  %.not.i.i.i = icmp eq i64 %11, 0
  br i1 %.not.i.i.i, label %12, label %_ZN4lean4exprC2ERKS0_.exit

12:                                               ; preds = %8
  %.val.i.i.i.i = load i32, ptr %9, align 4, !tbaa !8
  %13 = icmp sgt i32 %.val.i.i.i.i, 0
  br i1 %13, label %14, label %16, !prof !11

14:                                               ; preds = %12
  %15 = add nuw nsw i32 %.val.i.i.i.i, 1
  store i32 %15, ptr %9, align 4, !tbaa !8
  br label %_ZN4lean4exprC2ERKS0_.exit

16:                                               ; preds = %12
  %.not.i.i.i.i = icmp eq i32 %.val.i.i.i.i, 0
  br i1 %.not.i.i.i.i, label %_ZN4lean4exprC2ERKS0_.exit, label %17

17:                                               ; preds = %16
  tail call void @lean_inc_ref_cold(ptr noundef nonnull %9)
  br label %_ZN4lean4exprC2ERKS0_.exit

18:                                               ; preds = %5
  %19 = load ptr, ptr %4, align 8, !tbaa !3
  store ptr %19, ptr %0, align 8, !tbaa !3
  %20 = ptrtoint ptr %19 to i64
  %21 = and i64 %20, 1
  %.not.i.i.i15 = icmp eq i64 %21, 0
  br i1 %.not.i.i.i15, label %22, label %_ZN4lean4exprC2ERKS0_.exit18

22:                                               ; preds = %18
  %.val.i.i.i.i16 = load i32, ptr %19, align 4, !tbaa !8
  %23 = icmp sgt i32 %.val.i.i.i.i16, 0
  br i1 %23, label %24, label %26, !prof !11

24:                                               ; preds = %22
  %25 = add nuw nsw i32 %.val.i.i.i.i16, 1
  store i32 %25, ptr %19, align 4, !tbaa !8
  br label %_ZN4lean4exprC2ERKS0_.exit18

26:                                               ; preds = %22
  %.not.i.i.i.i17 = icmp eq i32 %.val.i.i.i.i16, 0
  br i1 %.not.i.i.i.i17, label %_ZN4lean4exprC2ERKS0_.exit18, label %27

27:                                               ; preds = %26
  tail call void @lean_inc_ref_cold(ptr noundef nonnull %19)
  br label %_ZN4lean4exprC2ERKS0_.exit18

_ZN4lean4exprC2ERKS0_.exit18:                     ; preds = %18, %24, %26, %27
  %.not = icmp eq i32 %3, 1
  br i1 %.not, label %_ZN4lean4exprC2ERKS0_.exit, label %.lr.ph.preheader

.lr.ph.preheader:                                 ; preds = %_ZN4lean4exprC2ERKS0_.exit18
  %wide.trip.count = zext i32 %3 to i64
  br label %.lr.ph

.lr.ph:                                           ; preds = %.lr.ph.preheader, %_ZN4lean10object_refD2Ev.exit
  %indvars.iv = phi i64 [ 1, %.lr.ph.preheader ], [ %indvars.iv.next, %_ZN4lean10object_refD2Ev.exit ]
  call void @llvm.lifetime.start.p0(i64 8, ptr nonnull %6) #7
  %28 = getelementptr inbounds nuw %"class.lean::expr", ptr %4, i64 %indvars.iv
  invoke void @_ZN4lean6mk_appERKNS_4exprES2_S2_(ptr dead_on_unwind nonnull writable sret(%"class.lean::expr") align 8 %6, ptr noundef nonnull align 8 dereferenceable(8) %1, ptr noundef nonnull align 8 dereferenceable(8) %0, ptr noundef nonnull align 8 dereferenceable(8) %28)
          to label %29 unwind label %41

29:                                               ; preds = %.lr.ph
  %30 = load ptr, ptr %0, align 8, !tbaa !3
  %31 = ptrtoint ptr %30 to i64
  %32 = and i64 %31, 1
  %.not.i.i.i19 = icmp eq i64 %32, 0
  br i1 %.not.i.i.i19, label %33, label %_ZN4lean10object_refD2Ev.exit

33:                                               ; preds = %29
  %34 = load i32, ptr %30, align 4, !tbaa !8
  %35 = icmp sgt i32 %34, 1
  br i1 %35, label %36, label %38, !prof !11

36:                                               ; preds = %33
  %37 = add nsw i32 %34, -1
  store i32 %37, ptr %30, align 4, !tbaa !8
  br label %_ZN4lean10object_refD2Ev.exit

38:                                               ; preds = %33
  %.not.i.i.i.i20 = icmp eq i32 %34, 0
  br i1 %.not.i.i.i.i20, label %_ZN4lean10object_refD2Ev.exit, label %39

39:                                               ; preds = %38
  invoke void @lean_dec_ref_cold(ptr noundef nonnull %30)
          to label %_ZN4lean10object_refD2Ev.exit unwind label %43

_ZN4lean10object_refD2Ev.exit:                    ; preds = %39, %29, %36, %38
  %40 = load ptr, ptr %6, align 8, !tbaa !3
  store ptr %40, ptr %0, align 8, !tbaa !3
  call void @llvm.lifetime.end.p0(i64 8, ptr nonnull %6) #7
  %indvars.iv.next = add nuw nsw i64 %indvars.iv, 1
  %exitcond.not = icmp eq i64 %indvars.iv.next, %wide.trip.count
  br i1 %exitcond.not, label %_ZN4lean4exprC2ERKS0_.exit, label %.lr.ph, !llvm.loop !19

41:                                               ; preds = %.lr.ph
  %42 = landingpad { ptr, i32 }
          cleanup
  br label %45

43:                                               ; preds = %39
  %44 = landingpad { ptr, i32 }
          cleanup
  call void @_ZN4lean10object_refD2Ev(ptr noundef nonnull align 8 dereferenceable(8) %6) #7
  br label %45

45:                                               ; preds = %43, %41
  %.pn = phi { ptr, i32 } [ %44, %43 ], [ %42, %41 ]
  call void @llvm.lifetime.end.p0(i64 8, ptr nonnull %6) #7
  call void @_ZN4lean10object_refD2Ev(ptr noundef nonnull align 8 dereferenceable(8) %0) #7
  resume { ptr, i32 } %.pn

_ZN4lean4exprC2ERKS0_.exit:                       ; preds = %_ZN4lean10object_refD2Ev.exit, %_ZN4lean4exprC2ERKS0_.exit18, %17, %16, %14, %8
  ret void
}